; Function Attrs: mustprogress uwtable
define dso_local void @_ZNK23cmCommonTargetGenerator23ComputeTargetCompilePDBERKNSt7__cxx1112basic_stringIcSt11char_traitsIcESaIcEEE(ptr dead_on_unwind noalias nonnull writable sret(%"class.std::__cxx11::basic_string") align 8 %0, ptr nocapture noundef nonnull readonly align 8 dereferenceable(120) %1, ptr noundef nonnull align 8 dereferenceable(32) %2) local_unnamed_addr #3 align 2 personality ptr @__gxx_personality_v0 {
  %4 = alloca %"class.std::__cxx11::basic_string", align 8
  %5 = alloca %"class.std::__cxx11::basic_string", align 8
  tail call void @_ZNSt7__cxx1112basic_stringIcSt11char_traitsIcESaIcEEC1Ev(ptr noundef nonnull align 8 dereferenceable(32) %0) #22
  %6 = getelementptr inbounds i8, ptr %1, i64 8
  %7 = load ptr, ptr %6, align 8
  %8 = invoke noundef i32 @_ZNK17cmGeneratorTarget7GetTypeEv(ptr noundef nonnull align 8 dereferenceable(2728) %7)
          to label %9 unwind label %11

9:                                                ; preds = %3
  %10 = icmp sgt i32 %8, 4
  br i1 %10, label %47, label %13

11:                                               ; preds = %45, %43, %40, %35, %33, %31, %29, %20, %18, %13, %3
  %12 = landingpad { ptr, i32 }
          cleanup
  call void @_ZNSt7__cxx1112basic_stringIcSt11char_traitsIcESaIcEED1Ev(ptr noundef nonnull align 8 dereferenceable(32) %0) #22
  resume { ptr, i32 } %12

13:                                               ; preds = %9
  %14 = load ptr, ptr %6, align 8
  invoke void @_ZNK17cmGeneratorTarget17GetCompilePDBPathERKNSt7__cxx1112basic_stringIcSt11char_traitsIcESaIcEEE(ptr dead_on_unwind nonnull writable sret(%"class.std::__cxx11::basic_string") align 8 %4, ptr noundef nonnull align 8 dereferenceable(2728) %14, ptr noundef nonnull align 8 dereferenceable(32) %2)
          to label %15 unwind label %11

15:                                               ; preds = %13
  %16 = call noundef nonnull align 8 dereferenceable(32) ptr @_ZNSt7__cxx1112basic_stringIcSt11char_traitsIcESaIcEEaSEOS4_(ptr noundef nonnull align 8 dereferenceable(32) %0, ptr noundef nonnull align 8 dereferenceable(32) %4) #22
  call void @_ZNSt7__cxx1112basic_stringIcSt11char_traitsIcESaIcEED1Ev(ptr noundef nonnull align 8 dereferenceable(32) %4) #22
  %17 = call noundef zeroext i1 @_ZNKSt7__cxx1112basic_stringIcSt11char_traitsIcESaIcEE5emptyEv(ptr noundef nonnull align 8 dereferenceable(32) %0) #22
  br i1 %17, label %18, label %47

18:                                               ; preds = %15
  %19 = load ptr, ptr %6, align 8
  invoke void @_ZNK17cmGeneratorTarget19GetSupportDirectoryB5cxx11Ev(ptr dead_on_unwind nonnull writable sret(%"class.std::__cxx11::basic_string") align 8 %5, ptr noundef nonnull align 8 dereferenceable(2728) %19)
          to label %20 unwind label %11

20:                                               ; preds = %18
  %21 = call noundef nonnull align 8 dereferenceable(32) ptr @_ZNSt7__cxx1112basic_stringIcSt11char_traitsIcESaIcEEaSEOS4_(ptr noundef nonnull align 8 dereferenceable(32) %0, ptr noundef nonnull align 8 dereferenceable(32) %5) #22
  call void @_ZNSt7__cxx1112basic_stringIcSt11char_traitsIcESaIcEED1Ev(ptr noundef nonnull align 8 dereferenceable(32) %5) #22
  %22 = getelementptr inbounds i8, ptr %1, i64 32
  %23 = load ptr, ptr %22, align 8
  %24 = load ptr, ptr %23, align 8
  %25 = getelementptr inbounds i8, ptr %24, i64 320
  %26 = load ptr, ptr %25, align 8
  %27 = invoke noundef zeroext i1 %26(ptr noundef nonnull align 8 dereferenceable(1778) %23)
          to label %28 unwind label %11

28:                                               ; preds = %20
  br i1 %27, label %29, label %33

29:                                               ; preds = %28
  %30 = invoke noundef nonnull align 8 dereferenceable(32) ptr @_ZNSt7__cxx1112basic_stringIcSt11char_traitsIcESaIcEEpLEPKc(ptr noundef nonnull align 8 dereferenceable(32) %0, ptr noundef nonnull @.str.8)
          to label %31 unwind label %11

31:                                               ; preds = %29
  %32 = invoke noundef nonnull align 8 dereferenceable(32) ptr @_ZNSt7__cxx1112basic_stringIcSt11char_traitsIcESaIcEEpLERKS4_(ptr noundef nonnull align 8 dereferenceable(32) %0, ptr noundef nonnull align 8 dereferenceable(32) %2)
          to label %33 unwind label %11

33:                                               ; preds = %31, %28
  %34 = invoke noundef nonnull align 8 dereferenceable(32) ptr @_ZNSt7__cxx1112basic_stringIcSt11char_traitsIcESaIcEEpLEPKc(ptr noundef nonnull align 8 dereferenceable(32) %0, ptr noundef nonnull @.str.8)
          to label %35 unwind label %11

35:                                               ; preds = %33
  %36 = load ptr, ptr %6, align 8
  %37 = invoke noundef i32 @_ZNK17cmGeneratorTarget7GetTypeEv(ptr noundef nonnull align 8 dereferenceable(2728) %36)
          to label %38 unwind label %11

38:                                               ; preds = %35
  %39 = icmp eq i32 %37, 1
  br i1 %39, label %40, label %47

40:                                               ; preds = %38
  %41 = load ptr, ptr %6, align 8
  %42 = invoke noundef nonnull align 8 dereferenceable(32) ptr @_ZNK17cmGeneratorTarget7GetNameB5cxx11Ev(ptr noundef nonnull align 8 dereferenceable(2728) %41)
          to label %43 unwind label %11

43:                                               ; preds = %40
  %44 = invoke noundef nonnull align 8 dereferenceable(32) ptr @_ZNSt7__cxx1112basic_stringIcSt11char_traitsIcESaIcEEpLERKS4_(ptr noundef nonnull align 8 dereferenceable(32) %0, ptr noundef nonnull align 8 dereferenceable(32) %42)
          to label %45 unwind label %11

45:                                               ; preds = %43
  %46 = invoke noundef nonnull align 8 dereferenceable(32) ptr @_ZNSt7__cxx1112basic_stringIcSt11char_traitsIcESaIcEEpLEPKc(ptr noundef nonnull align 8 dereferenceable(32) %0, ptr noundef nonnull @.str.9)
          to label %47 unwind label %11

47:                                               ; preds = %9, %38, %45, %15
  ret void
}